target datalayout = "e-m:e-p270:32:32-p271:32:32-p272:64:64-i64:64-i128:128-f80:128-n8:16:32:64-S128"
target triple = "x86_64-pc-linux-gnu"

%struct.AVRational = type { i32, i32 }
%struct.AVCIExy = type { %struct.AVRational, %struct.AVRational }

; Function Attrs: inlinehint nounwind uwtable
define internal double @av_q2d(i64 %0) #6 {
  %2 = alloca %struct.AVRational, align 4
  store i64 %0, ptr %2, align 4
  %3 = getelementptr inbounds nuw %struct.AVRational, ptr %2, i32 0, i32 0
  %4 = load i32, ptr %3, align 4, !tbaa !160
  %5 = sitofp i32 %4 to double
  %6 = getelementptr inbounds nuw %struct.AVRational, ptr %2, i32 0, i32 1
  %7 = load i32, ptr %6, align 4, !tbaa !161
  %8 = sitofp i32 %7 to double
  %9 = fdiv nsz double %5, %8
  ret double %9
}

; Function Attrs: nounwind uwtable
define internal void @fill_whitepoint_conv_table(ptr noundef %0, i32 noundef %1, ptr noundef %2, ptr noundef %3) #1 {
  %5 = alloca ptr, align 8
  %6 = alloca i32, align 4
  %7 = alloca ptr, align 8
  %8 = alloca ptr, align 8
  %9 = alloca ptr, align 8
  %10 = alloca double, align 8
  %11 = alloca double, align 8
  %12 = alloca double, align 8
  %13 = alloca double, align 8
  %14 = alloca double, align 8
  %15 = alloca double, align 8
  %16 = alloca [3 x [3 x double]], align 16
  %17 = alloca [3 x [3 x double]], align 16
  %18 = alloca [3 x [3 x double]], align 16
  %19 = alloca double, align 8
  %20 = alloca double, align 8
  %21 = alloca double, align 8
  %22 = alloca double, align 8
  %23 = alloca double, align 8
  %24 = alloca double, align 8
  store ptr %0, ptr %5, align 8, !tbaa !126
  store i32 %1, ptr %6, align 4, !tbaa !33
  store ptr %2, ptr %7, align 8, !tbaa !108
  store ptr %3, ptr %8, align 8, !tbaa !108
  call void @llvm.lifetime.start.p0(i64 8, ptr %9) #9
  %25 = load i32, ptr %6, align 4, !tbaa !33
  %26 = zext i32 %25 to i64
  %27 = getelementptr inbounds nuw [2 x [3 x [3 x double]]], ptr @fill_whitepoint_conv_table.ma_tbl, i64 0, i64 %26
  %28 = getelementptr inbounds [3 x [3 x double]], ptr %27, i64 0, i64 0
  store ptr %28, ptr %9, align 8, !tbaa !126
  call void @llvm.lifetime.start.p0(i64 8, ptr %10) #9
  %29 = load ptr, ptr %7, align 8, !tbaa !108
  %30 = getelementptr inbounds nuw %struct.AVCIExy, ptr %29, i32 0, i32 0
  %31 = load i64, ptr %30, align 4
  %32 = call nsz double @av_q2d(i64 %31)
  store double %32, ptr %10, align 8, !tbaa !111
  call void @llvm.lifetime.start.p0(i64 8, ptr %11) #9
  %33 = load ptr, ptr %7, align 8, !tbaa !108
  %34 = getelementptr inbounds nuw %struct.AVCIExy, ptr %33, i32 0, i32 1
  %35 = load i64, ptr %34, align 4
  %36 = call nsz double @av_q2d(i64 %35)
  store double %36, ptr %11, align 8, !tbaa !111
  call void @llvm.lifetime.start.p0(i64 8, ptr %12) #9
  %37 = load ptr, ptr %8, align 8, !tbaa !108
  %38 = getelementptr inbounds nuw %struct.AVCIExy, ptr %37, i32 0, i32 0
  %39 = load i64, ptr %38, align 4
  %40 = call nsz double @av_q2d(i64 %39)
  store double %40, ptr %12, align 8, !tbaa !111
  call void @llvm.lifetime.start.p0(i64 8, ptr %13) #9
  %41 = load ptr, ptr %8, align 8, !tbaa !108
  %42 = getelementptr inbounds nuw %struct.AVCIExy, ptr %41, i32 0, i32 1
  %43 = load i64, ptr %42, align 4
  %44 = call nsz double @av_q2d(i64 %43)
  store double %44, ptr %13, align 8, !tbaa !111
  call void @llvm.lifetime.start.p0(i64 8, ptr %14) #9
  %45 = load double, ptr %10, align 8, !tbaa !111
  %46 = fsub nsz double 1.000000e+00, %45
  %47 = load double, ptr %11, align 8, !tbaa !111
  %48 = fsub nsz double %46, %47
  store double %48, ptr %14, align 8, !tbaa !111
  call void @llvm.lifetime.start.p0(i64 8, ptr %15) #9
  %49 = load double, ptr %12, align 8, !tbaa !111
  %50 = fsub nsz double 1.000000e+00, %49
  %51 = load double, ptr %13, align 8, !tbaa !111
  %52 = fsub nsz double %50, %51
  store double %52, ptr %15, align 8, !tbaa !111
  call void @llvm.lifetime.start.p0(i64 72, ptr %16) #9
  call void @llvm.lifetime.start.p0(i64 72, ptr %17) #9
  call void @llvm.lifetime.start.p0(i64 72, ptr %18) #9
  call void @llvm.lifetime.start.p0(i64 8, ptr %19) #9
  call void @llvm.lifetime.start.p0(i64 8, ptr %20) #9
  call void @llvm.lifetime.start.p0(i64 8, ptr %21) #9
  call void @llvm.lifetime.start.p0(i64 8, ptr %22) #9
  call void @llvm.lifetime.start.p0(i64 8, ptr %23) #9
  call void @llvm.lifetime.start.p0(i64 8, ptr %24) #9
  %53 = load ptr, ptr %9, align 8, !tbaa !126
  %54 = getelementptr inbounds [3 x [3 x double]], ptr %16, i64 0, i64 0
  call void @ff_matrix_invert_3x3(ptr noundef %53, ptr noundef %54)
  %55 = load ptr, ptr %9, align 8, !tbaa !126
  %56 = getelementptr inbounds [3 x double], ptr %55, i64 0
  %57 = getelementptr inbounds [3 x double], ptr %56, i64 0, i64 0
  %58 = load double, ptr %57, align 8, !tbaa !111
  %59 = load double, ptr %10, align 8, !tbaa !111
  %60 = load ptr, ptr %9, align 8, !tbaa !126
  %61 = getelementptr inbounds [3 x double], ptr %60, i64 0
  %62 = getelementptr inbounds [3 x double], ptr %61, i64 0, i64 1
  %63 = load double, ptr %62, align 8, !tbaa !111
  %64 = load double, ptr %11, align 8, !tbaa !111
  %65 = fmul nsz double %63, %64
  %66 = call nsz double @llvm.fmuladd.f64(double %58, double %59, double %65)
  %67 = load ptr, ptr %9, align 8, !tbaa !126
  %68 = getelementptr inbounds [3 x double], ptr %67, i64 0
  %69 = getelementptr inbounds [3 x double], ptr %68, i64 0, i64 2
  %70 = load double, ptr %69, align 8, !tbaa !111
  %71 = load double, ptr %14, align 8, !tbaa !111
  %72 = call nsz double @llvm.fmuladd.f64(double %70, double %71, double %66)
  store double %72, ptr %19, align 8, !tbaa !111
  %73 = load ptr, ptr %9, align 8, !tbaa !126
  %74 = getelementptr inbounds [3 x double], ptr %73, i64 1
  %75 = getelementptr inbounds [3 x double], ptr %74, i64 0, i64 0
  %76 = load double, ptr %75, align 8, !tbaa !111
  %77 = load double, ptr %10, align 8, !tbaa !111
  %78 = load ptr, ptr %9, align 8, !tbaa !126
  %79 = getelementptr inbounds [3 x double], ptr %78, i64 1
  %80 = getelementptr inbounds [3 x double], ptr %79, i64 0, i64 1
  %81 = load double, ptr %80, align 8, !tbaa !111
  %82 = load double, ptr %11, align 8, !tbaa !111
  %83 = fmul nsz double %81, %82
  %84 = call nsz double @llvm.fmuladd.f64(double %76, double %77, double %83)
  %85 = load ptr, ptr %9, align 8, !tbaa !126
  %86 = getelementptr inbounds [3 x double], ptr %85, i64 1
  %87 = getelementptr inbounds [3 x double], ptr %86, i64 0, i64 2
  %88 = load double, ptr %87, align 8, !tbaa !111
  %89 = load double, ptr %14, align 8, !tbaa !111
  %90 = call nsz double @llvm.fmuladd.f64(double %88, double %89, double %84)
  store double %90, ptr %20, align 8, !tbaa !111
  %91 = load ptr, ptr %9, align 8, !tbaa !126
  %92 = getelementptr inbounds [3 x double], ptr %91, i64 2
  %93 = getelementptr inbounds [3 x double], ptr %92, i64 0, i64 0
  %94 = load double, ptr %93, align 8, !tbaa !111
  %95 = load double, ptr %10, align 8, !tbaa !111
  %96 = load ptr, ptr %9, align 8, !tbaa !126
  %97 = getelementptr inbounds [3 x double], ptr %96, i64 2
  %98 = getelementptr inbounds [3 x double], ptr %97, i64 0, i64 1
  %99 = load double, ptr %98, align 8, !tbaa !111
  %100 = load double, ptr %11, align 8, !tbaa !111
  %101 = fmul nsz double %99, %100
  %102 = call nsz double @llvm.fmuladd.f64(double %94, double %95, double %101)
  %103 = load ptr, ptr %9, align 8, !tbaa !126
  %104 = getelementptr inbounds [3 x double], ptr %103, i64 2
  %105 = getelementptr inbounds [3 x double], ptr %104, i64 0, i64 2
  %106 = load double, ptr %105, align 8, !tbaa !111
  %107 = load double, ptr %14, align 8, !tbaa !111
  %108 = call nsz double @llvm.fmuladd.f64(double %106, double %107, double %102)
  store double %108, ptr %21, align 8, !tbaa !111
  %109 = load ptr, ptr %9, align 8, !tbaa !126
  %110 = getelementptr inbounds [3 x double], ptr %109, i64 0
  %111 = getelementptr inbounds [3 x double], ptr %110, i64 0, i64 0
  %112 = load double, ptr %111, align 8, !tbaa !111
  %113 = load double, ptr %12, align 8, !tbaa !111
  %114 = load ptr, ptr %9, align 8, !tbaa !126
  %115 = getelementptr inbounds [3 x double], ptr %114, i64 0
  %116 = getelementptr inbounds [3 x double], ptr %115, i64 0, i64 1
  %117 = load double, ptr %116, align 8, !tbaa !111
  %118 = load double, ptr %13, align 8, !tbaa !111
  %119 = fmul nsz double %117, %118
  %120 = call nsz double @llvm.fmuladd.f64(double %112, double %113, double %119)
  %121 = load ptr, ptr %9, align 8, !tbaa !126
  %122 = getelementptr inbounds [3 x double], ptr %121, i64 0
  %123 = getelementptr inbounds [3 x double], ptr %122, i64 0, i64 2
  %124 = load double, ptr %123, align 8, !tbaa !111
  %125 = load double, ptr %15, align 8, !tbaa !111
  %126 = call nsz double @llvm.fmuladd.f64(double %124, double %125, double %120)
  store double %126, ptr %22, align 8, !tbaa !111
  %127 = load ptr, ptr %9, align 8, !tbaa !126
  %128 = getelementptr inbounds [3 x double], ptr %127, i64 1
  %129 = getelementptr inbounds [3 x double], ptr %128, i64 0, i64 0
  %130 = load double, ptr %129, align 8, !tbaa !111
  %131 = load double, ptr %12, align 8, !tbaa !111
  %132 = load ptr, ptr %9, align 8, !tbaa !126
  %133 = getelementptr inbounds [3 x double], ptr %132, i64 1
  %134 = getelementptr inbounds [3 x double], ptr %133, i64 0, i64 1
  %135 = load double, ptr %134, align 8, !tbaa !111
  %136 = load double, ptr %13, align 8, !tbaa !111
  %137 = fmul nsz double %135, %136
  %138 = call nsz double @llvm.fmuladd.f64(double %130, double %131, double %137)
  %139 = load ptr, ptr %9, align 8, !tbaa !126
  %140 = getelementptr inbounds [3 x double], ptr %139, i64 1
  %141 = getelementptr inbounds [3 x double], ptr %140, i64 0, i64 2
  %142 = load double, ptr %141, align 8, !tbaa !111
  %143 = load double, ptr %15, align 8, !tbaa !111
  %144 = call nsz double @llvm.fmuladd.f64(double %142, double %143, double %138)
  store double %144, ptr %23, align 8, !tbaa !111
  %145 = load ptr, ptr %9, align 8, !tbaa !126
  %146 = getelementptr inbounds [3 x double], ptr %145, i64 2
  %147 = getelementptr inbounds [3 x double], ptr %146, i64 0, i64 0
  %148 = load double, ptr %147, align 8, !tbaa !111
  %149 = load double, ptr %12, align 8, !tbaa !111
  %150 = load ptr, ptr %9, align 8, !tbaa !126
  %151 = getelementptr inbounds [3 x double], ptr %150, i64 2
  %152 = getelementptr inbounds [3 x double], ptr %151, i64 0, i64 1
  %153 = load double, ptr %152, align 8, !tbaa !111
  %154 = load double, ptr %13, align 8, !tbaa !111
  %155 = fmul nsz double %153, %154
  %156 = call nsz double @llvm.fmuladd.f64(double %148, double %149, double %155)
  %157 = load ptr, ptr %9, align 8, !tbaa !126
  %158 = getelementptr inbounds [3 x double], ptr %157, i64 2
  %159 = getelementptr inbounds [3 x double], ptr %158, i64 0, i64 2
  %160 = load double, ptr %159, align 8, !tbaa !111
  %161 = load double, ptr %15, align 8, !tbaa !111
  %162 = call nsz double @llvm.fmuladd.f64(double %160, double %161, double %156)
  store double %162, ptr %24, align 8, !tbaa !111
  %163 = load double, ptr %22, align 8, !tbaa !111
  %164 = load double, ptr %19, align 8, !tbaa !111
  %165 = fdiv nsz double %163, %164
  %166 = getelementptr inbounds [3 x [3 x double]], ptr %17, i64 0, i64 0
  %167 = getelementptr inbounds [3 x double], ptr %166, i64 0, i64 0
  store double %165, ptr %167, align 16, !tbaa !111
  %168 = load double, ptr %23, align 8, !tbaa !111
  %169 = load double, ptr %20, align 8, !tbaa !111
  %170 = fdiv nsz double %168, %169
  %171 = getelementptr inbounds [3 x [3 x double]], ptr %17, i64 0, i64 1
  %172 = getelementptr inbounds [3 x double], ptr %171, i64 0, i64 1
  store double %170, ptr %172, align 8, !tbaa !111
  %173 = load double, ptr %24, align 8, !tbaa !111
  %174 = load double, ptr %21, align 8, !tbaa !111
  %175 = fdiv nsz double %173, %174
  %176 = getelementptr inbounds [3 x [3 x double]], ptr %17, i64 0, i64 2
  %177 = getelementptr inbounds [3 x double], ptr %176, i64 0, i64 2
  store double %175, ptr %177, align 16, !tbaa !111
  %178 = getelementptr inbounds [3 x [3 x double]], ptr %17, i64 0, i64 2
  %179 = getelementptr inbounds [3 x double], ptr %178, i64 0, i64 1
  store double 0.000000e+00, ptr %179, align 8, !tbaa !111
  %180 = getelementptr inbounds [3 x [3 x double]], ptr %17, i64 0, i64 2
  %181 = getelementptr inbounds [3 x double], ptr %180, i64 0, i64 0
  store double 0.000000e+00, ptr %181, align 16, !tbaa !111
  %182 = getelementptr inbounds [3 x [3 x double]], ptr %17, i64 0, i64 1
  %183 = getelementptr inbounds [3 x double], ptr %182, i64 0, i64 2
  store double 0.000000e+00, ptr %183, align 8, !tbaa !111
  %184 = getelementptr inbounds [3 x [3 x double]], ptr %17, i64 0, i64 1
  %185 = getelementptr inbounds [3 x double], ptr %184, i64 0, i64 0
  store double 0.000000e+00, ptr %185, align 8, !tbaa !111
  %186 = getelementptr inbounds [3 x [3 x double]], ptr %17, i64 0, i64 0
  %187 = getelementptr inbounds [3 x double], ptr %186, i64 0, i64 2
  store double 0.000000e+00, ptr %187, align 16, !tbaa !111
  %188 = getelementptr inbounds [3 x [3 x double]], ptr %17, i64 0, i64 0
  %189 = getelementptr inbounds [3 x double], ptr %188, i64 0, i64 1
  store double 0.000000e+00, ptr %189, align 8, !tbaa !111
  %190 = getelementptr inbounds [3 x [3 x double]], ptr %18, i64 0, i64 0
  %191 = load ptr, ptr %9, align 8, !tbaa !126
  %192 = getelementptr inbounds [3 x [3 x double]], ptr %17, i64 0, i64 0
  call void @ff_matrix_mul_3x3(ptr noundef %190, ptr noundef %191, ptr noundef %192)
  %193 = load ptr, ptr %5, align 8, !tbaa !126
  %194 = getelementptr inbounds [3 x [3 x double]], ptr %18, i64 0, i64 0
  %195 = getelementptr inbounds [3 x [3 x double]], ptr %16, i64 0, i64 0
  call void @ff_matrix_mul_3x3(ptr noundef %193, ptr noundef %194, ptr noundef %195)
  call void @llvm.lifetime.end.p0(i64 8, ptr %24) #9
  call void @llvm.lifetime.end.p0(i64 8, ptr %23) #9
  call void @llvm.lifetime.end.p0(i64 8, ptr %22) #9
  call void @llvm.lifetime.end.p0(i64 8, ptr %21) #9
  call void @llvm.lifetime.end.p0(i64 8, ptr %20) #9
  call void @llvm.lifetime.end.p0(i64 8, ptr %19) #9
  call void @llvm.lifetime.end.p0(i64 72, ptr %18) #9
  call void @llvm.lifetime.end.p0(i64 72, ptr %17) #9
  call void @llvm.lifetime.end.p0(i64 72, ptr %16) #9
  call void @llvm.lifetime.end.p0(i64 8, ptr %15) #9
  call void @llvm.lifetime.end.p0(i64 8, ptr %14) #9
  call void @llvm.lifetime.end.p0(i64 8, ptr %13) #9
  call void @llvm.lifetime.end.p0(i64 8, ptr %12) #9
  call void @llvm.lifetime.end.p0(i64 8, ptr %11) #9
  call void @llvm.lifetime.end.p0(i64 8, ptr %10) #9
  call void @llvm.lifetime.end.p0(i64 8, ptr %9) #9
  ret void
}