; Function Attrs: nounwind uwtable
define internal fastcc void @fill_whitepoint_conv_table(ptr noundef nonnull %0, i32 noundef %1, i64 %.0.val, i64 %.8.val, i64 %.0.val1, i64 %.8.val3) unnamed_addr #1 {
  %3 = alloca [3 x [3 x double]], align 16
  %4 = alloca [3 x [3 x double]], align 16
  %5 = alloca [3 x [3 x double]], align 16
  %6 = zext i32 %1 to i64
  %7 = getelementptr inbounds nuw [2 x [3 x [3 x double]]], ptr @fill_whitepoint_conv_table.ma_tbl, i64 0, i64 %6
  %.sroa.0.0.extract.trunc.i = trunc i64 %.0.val to i32
  %.sroa.2.0.extract.shift.i = lshr i64 %.0.val, 32
  %.sroa.2.0.extract.trunc.i = trunc nuw i64 %.sroa.2.0.extract.shift.i to i32
  %8 = sitofp i32 %.sroa.0.0.extract.trunc.i to double
  %9 = sitofp i32 %.sroa.2.0.extract.trunc.i to double
  %10 = fdiv nsz double %8, %9
  %.sroa.0.0.extract.trunc.i53 = trunc i64 %.8.val to i32
  %.sroa.2.0.extract.shift.i54 = lshr i64 %.8.val, 32
  %.sroa.2.0.extract.trunc.i55 = trunc nuw i64 %.sroa.2.0.extract.shift.i54 to i32
  %11 = sitofp i32 %.sroa.0.0.extract.trunc.i53 to double
  %12 = sitofp i32 %.sroa.2.0.extract.trunc.i55 to double
  %13 = fdiv nsz double %11, %12
  %.sroa.0.0.extract.trunc.i56 = trunc i64 %.0.val1 to i32
  %.sroa.2.0.extract.shift.i57 = lshr i64 %.0.val1, 32
  %.sroa.2.0.extract.trunc.i58 = trunc nuw i64 %.sroa.2.0.extract.shift.i57 to i32
  %14 = sitofp i32 %.sroa.0.0.extract.trunc.i56 to double
  %15 = sitofp i32 %.sroa.2.0.extract.trunc.i58 to double
  %16 = fdiv nsz double %14, %15
  %.sroa.0.0.extract.trunc.i59 = trunc i64 %.8.val3 to i32
  %.sroa.2.0.extract.shift.i60 = lshr i64 %.8.val3, 32
  %.sroa.2.0.extract.trunc.i61 = trunc nuw i64 %.sroa.2.0.extract.shift.i60 to i32
  %17 = sitofp i32 %.sroa.0.0.extract.trunc.i59 to double
  %18 = sitofp i32 %.sroa.2.0.extract.trunc.i61 to double
  %19 = fdiv nsz double %17, %18
  %20 = fsub nsz double 1.000000e+00, %10
  %21 = fsub nsz double %20, %13
  %22 = fsub nsz double 1.000000e+00, %16
  %23 = fsub nsz double %22, %19
  call void @llvm.lifetime.start.p0(i64 72, ptr nonnull %3) #9
  call void @llvm.lifetime.start.p0(i64 72, ptr nonnull %4) #9
  call void @llvm.lifetime.start.p0(i64 72, ptr nonnull %5) #9
  call void @ff_matrix_invert_3x3(ptr noundef nonnull %7, ptr noundef nonnull %3) #9
  %24 = load double, ptr %7, align 8, !tbaa !94
  %25 = getelementptr inbounds nuw i8, ptr %7, i64 8
  %26 = load double, ptr %25, align 8, !tbaa !94
  %27 = fmul nsz double %13, %26
  %28 = call nsz double @llvm.fmuladd.f64(double %24, double %10, double %27)
  %29 = getelementptr inbounds nuw i8, ptr %7, i64 16
  %30 = load double, ptr %29, align 8, !tbaa !94
  %31 = call nsz double @llvm.fmuladd.f64(double %30, double %21, double %28)
  %32 = getelementptr inbounds nuw i8, ptr %7, i64 24
  %33 = load double, ptr %32, align 8, !tbaa !94
  %34 = getelementptr inbounds nuw i8, ptr %7, i64 32
  %35 = load double, ptr %34, align 8, !tbaa !94
  %36 = fmul nsz double %13, %35
  %37 = call nsz double @llvm.fmuladd.f64(double %33, double %10, double %36)
  %38 = getelementptr inbounds nuw i8, ptr %7, i64 40
  %39 = load double, ptr %38, align 8, !tbaa !94
  %40 = call nsz double @llvm.fmuladd.f64(double %39, double %21, double %37)
  %41 = getelementptr inbounds nuw i8, ptr %7, i64 48
  %42 = load double, ptr %41, align 8, !tbaa !94
  %43 = getelementptr inbounds nuw i8, ptr %7, i64 56
  %44 = load double, ptr %43, align 8, !tbaa !94
  %45 = fmul nsz double %13, %44
  %46 = call nsz double @llvm.fmuladd.f64(double %42, double %10, double %45)
  %47 = getelementptr inbounds nuw i8, ptr %7, i64 64
  %48 = load double, ptr %47, align 8, !tbaa !94
  %49 = call nsz double @llvm.fmuladd.f64(double %48, double %21, double %46)
  %50 = fmul nsz double %19, %26
  %51 = call nsz double @llvm.fmuladd.f64(double %24, double %16, double %50)
  %52 = call nsz double @llvm.fmuladd.f64(double %30, double %23, double %51)
  %53 = fmul nsz double %19, %35
  %54 = call nsz double @llvm.fmuladd.f64(double %33, double %16, double %53)
  %55 = call nsz double @llvm.fmuladd.f64(double %39, double %23, double %54)
  %56 = fmul nsz double %19, %44
  %57 = call nsz double @llvm.fmuladd.f64(double %42, double %16, double %56)
  %58 = call nsz double @llvm.fmuladd.f64(double %48, double %23, double %57)
  %59 = fdiv nsz double %52, %31
  store double %59, ptr %4, align 16, !tbaa !94
  %60 = fdiv nsz double %55, %40
  %61 = getelementptr inbounds nuw i8, ptr %4, i64 32
  store double %60, ptr %61, align 16, !tbaa !94
  %62 = fdiv nsz double %58, %49
  %63 = getelementptr inbounds nuw i8, ptr %4, i64 64
  store double %62, ptr %63, align 16, !tbaa !94
  %64 = getelementptr inbounds nuw i8, ptr %4, i64 40
  %65 = getelementptr inbounds nuw i8, ptr %4, i64 8
  call void @llvm.memset.p0.i64(ptr noundef nonnull align 8 dereferenceable(24) %65, i8 0, i64 24, i1 false)
  call void @llvm.memset.p0.i64(ptr noundef nonnull align 8 dereferenceable(24) %64, i8 0, i64 24, i1 false)
  call void @ff_matrix_mul_3x3(ptr noundef nonnull %5, ptr noundef nonnull %7, ptr noundef nonnull %4) #9
  call void @ff_matrix_mul_3x3(ptr noundef nonnull %0, ptr noundef nonnull %5, ptr noundef nonnull %3) #9
  call void @llvm.lifetime.end.p0(i64 72, ptr nonnull %5) #9
  call void @llvm.lifetime.end.p0(i64 72, ptr nonnull %4) #9
  call void @llvm.lifetime.end.p0(i64 72, ptr nonnull %3) #9
  ret void
}